target datalayout = "e-m:e-p270:32:32-p271:32:32-p272:64:64-i64:64-i128:128-f80:128-n8:16:32:64-S128"
target triple = "x86_64-pc-linux-gnu"

%struct.H264Context = type { ptr, ptr, %struct.VideoDSPContext, %struct.H264DSPContext, %struct.H264ChromaContext, %struct.H264QpelContext, %struct.H274FilmGrainDatabase, [36 x %struct.H264Picture], ptr, %struct.H264Picture, %struct.H264Picture, ptr, i32, i32, %struct.H2645Packet, i32, i32, i32, i32, i32, i32, i32, i32, i32, i32, i32, i32, i32, i32, i32, i32, i32, ptr, %struct.H264PredContext, ptr, [96 x i32], ptr, ptr, i32, ptr, i32, i32, i32, ptr, ptr, ptr, [2 x ptr], ptr, [16 x i8], [16 x i8], [64 x i8], [64 x i8], [16 x i8], [64 x i8], [64 x i8], [16 x i8], [64 x i8], [64 x i8], [16 x i8], [64 x i8], [64 x i8], i32, i32, i32, i32, i32, i32, i32, i32, i32, i32, i32, i32, %struct.H264ParamSets, ptr, %struct.H264POCContext, [2 x %struct.H264Ref], [32 x ptr], [32 x ptr], [18 x ptr], [16 x i32], ptr, i32, i32, [67 x %struct.MMCO], i32, i32, i32, i32, i32, i32, i32, i32, i32, i32, i32, i32, i32, i32, i32, [32 x i16], i32, i32, i32, %struct.ERContext, ptr, %struct.H264SEIContext, ptr, ptr, ptr, ptr, ptr, [32 x [2 x [64 x i32]]], i32, i32, i32 }
%struct.VideoDSPContext = type { ptr, ptr }
%struct.H264DSPContext = type { [4 x ptr], [4 x ptr], ptr, ptr, ptr, ptr, ptr, ptr, ptr, ptr, ptr, ptr, ptr, ptr, ptr, ptr, ptr, ptr, ptr, ptr, ptr, ptr, ptr, ptr, ptr, ptr, ptr, ptr }
%struct.H264ChromaContext = type { [4 x ptr], [4 x ptr] }
%struct.H264QpelContext = type { [4 x [16 x ptr]], [4 x [16 x ptr]] }
%struct.H274FilmGrainDatabase = type { [13 x [13 x [64 x [64 x i8]]]], [13 x i16], [64 x [64 x i16]] }
%struct.H264Picture = type { ptr, %struct.ThreadFrame, ptr, ptr, ptr, [2 x ptr], [2 x ptr], ptr, ptr, ptr, [2 x ptr], [2 x i32], i32, i32, i32, i32, i32, [2 x [2 x [32 x i32]]], [2 x [2 x i32]], i32, i32, i32, i32, i32, i32, i32, ptr, i32, i32, i32, ptr, i32 }
%struct.ThreadFrame = type { ptr, [2 x ptr], ptr }
%struct.H2645Packet = type { ptr, %struct.H2645RBSP, i32, i32, i32 }
%struct.H2645RBSP = type { ptr, ptr, i32, i32 }
%struct.H264PredContext = type { [15 x ptr], [12 x ptr], [11 x ptr], [9 x ptr], [2 x ptr], [2 x ptr], [2 x ptr], [3 x ptr], [3 x ptr] }
%struct.H264ParamSets = type { [32 x ptr], [256 x ptr], ptr, ptr, [2 x i32] }
%struct.H264POCContext = type { i32, i32, i32, [2 x i32], i32, i32, i32, i32, i32, i32 }
%struct.H264Ref = type { [3 x ptr], [3 x i32], i32, i32, i32, ptr }
%struct.MMCO = type { i32, i32, i32 }
%struct.ERContext = type { ptr, ptr, i32, ptr, i32, i32, i32, i64, i64, i32, i32, ptr, ptr, [3 x ptr], ptr, ptr, [2 x [4 x [2 x i32]]], %struct.ERPicture, %struct.ERPicture, %struct.ERPicture, [2 x ptr], [2 x ptr], i16, i16, i32, i32, ptr, ptr }
%struct.ERPicture = type { ptr, ptr, ptr, [2 x ptr], [2 x ptr], ptr, i32 }
%struct.H264SEIContext = type { %struct.H2645SEI, %struct.H264SEIPictureTiming, %struct.H264SEIRecoveryPoint, %struct.H264SEIBufferingPeriod, %struct.H264SEIGreenMetaData }
%struct.H2645SEI = type { %struct.H2645SEIA53Caption, %struct.H2645SEIAFD, %struct.HEVCSEIDynamicHDRPlus, %struct.HEVCSEIDynamicHDRVivid, %struct.HEVCSEILCEVC, %struct.H2645SEIUnregistered, %struct.H2645SEIFramePacking, %struct.H2645SEIDisplayOrientation, %struct.H2645SEIAlternativeTransfer, %struct.H2645SEIAmbientViewingEnvironment, %struct.H2645SEIMasteringDisplay, %struct.H2645SEIContentLight, %struct.AVFilmGrainAFGS1Params, ptr }
%struct.H2645SEIA53Caption = type { ptr }
%struct.H2645SEIAFD = type { i32, i8 }
%struct.HEVCSEIDynamicHDRPlus = type { ptr }
%struct.HEVCSEIDynamicHDRVivid = type { ptr }
%struct.HEVCSEILCEVC = type { ptr }
%struct.H2645SEIUnregistered = type { ptr, i32, i32 }
%struct.H2645SEIFramePacking = type { i32, i32, i32, i32, i32, i32, i32, i32 }
%struct.H2645SEIDisplayOrientation = type { i32, i32, i32, i32 }
%struct.H2645SEIAlternativeTransfer = type { i32, i32 }
%struct.H2645SEIAmbientViewingEnvironment = type { i32, i32, i16, i16 }
%struct.H2645SEIMasteringDisplay = type { i32, [3 x [2 x i16]], [2 x i16], i32, i32 }
%struct.H2645SEIContentLight = type { i32, i16, i16 }
%struct.AVFilmGrainAFGS1Params = type { i32, [8 x ptr] }
%struct.H264SEIPictureTiming = type { [40 x i8], i32, i32, i32, i32, i32, i32, [3 x %struct.H264SEITimeCode], i32 }
%struct.H264SEITimeCode = type { i32, i32, i32, i32, i32, i32 }
%struct.H264SEIRecoveryPoint = type { i32 }
%struct.H264SEIBufferingPeriod = type { i32, [32 x i32] }
%struct.H264SEIGreenMetaData = type { i8, i8, i16, i16, i8, i8, i8, i8, i8, i16 }
%struct.H264SliceContext = type { ptr, %struct.GetBitContext, ptr, i32, i32, i32, i32, i32, [2 x i32], i32, i32, i32, i32, i32, %struct.H264PredWeightTable, i32, i32, i32, i32, [40 x i8], ptr, i32, i32, i32, [2 x i32], i32, i32, i32, [2 x i32], ptr, i32, i32, i32, i32, i32, i64, i64, i64, i64, i32, i32, i32, i32, i32, i32, i32, i32, i32, i32, i32, i32, i32, i32, i32, i32, i32, i32, i32, i32, [32 x i32], [2 x [32 x i32]], [2 x [48 x i32]], [2 x [2 x [48 x i32]]], [2 x i32], i32, [2 x [48 x %struct.H264Ref]], [2 x [32 x %struct.anon.3]], [2 x i32], i32, ptr, ptr, ptr, [2 x ptr], i32, i32, [2 x i32], [120 x i8], [8 x i8], [2 x [40 x [2 x i16]]], [2 x [40 x i8]], [2 x [40 x [2 x i8]]], [40 x i8], [4 x i16], [1536 x i16], [3 x [32 x i16]], [512 x i16], [2 x ptr], %struct.CABACContext, [1024 x i8], i32, [67 x %struct.MMCO], i32, i32, i32, i32, i32, i32, [2 x i32], i32, i32 }
%struct.GetBitContext = type { ptr, ptr, i32, i32, i32 }
%struct.H264PredWeightTable = type { i32, i32, i32, i32, [2 x i32], [2 x i32], [48 x [2 x [2 x i32]]], [48 x [2 x [2 x [2 x i32]]]], [48 x [48 x [2 x i32]]] }
%struct.anon.3 = type { i8, i32 }
%struct.CABACContext = type { i32, i32, ptr, ptr, ptr }

; Function Attrs: nounwind uwtable
define internal void @fill_vaapi_plain_pred_weight_table(ptr noundef %0, i32 noundef %1, ptr noundef %2, ptr noundef %3, ptr noundef %4, ptr noundef %5, ptr noundef %6, ptr noundef %7) #0 {
  %9 = alloca ptr, align 8
  %10 = alloca i32, align 4
  %11 = alloca ptr, align 8
  %12 = alloca ptr, align 8
  %13 = alloca ptr, align 8
  %14 = alloca ptr, align 8
  %15 = alloca ptr, align 8
  %16 = alloca ptr, align 8
  %17 = alloca ptr, align 8
  %18 = alloca i32, align 4
  %19 = alloca i32, align 4
  store ptr %0, ptr %9, align 8, !tbaa !32
  store i32 %1, ptr %10, align 4, !tbaa !13
  store ptr %2, ptr %11, align 8, !tbaa !11
  store ptr %3, ptr %12, align 8, !tbaa !214
  store ptr %4, ptr %13, align 8, !tbaa !214
  store ptr %5, ptr %14, align 8, !tbaa !11
  store ptr %6, ptr %15, align 8, !tbaa !214
  store ptr %7, ptr %16, align 8, !tbaa !214
  call void @llvm.lifetime.start.p0(i64 8, ptr %17) #6
  %20 = load ptr, ptr %9, align 8, !tbaa !32
  %21 = getelementptr inbounds nuw %struct.H264Context, ptr %20, i32 0, i32 11
  %22 = load ptr, ptr %21, align 8, !tbaa !139
  %23 = getelementptr inbounds %struct.H264SliceContext, ptr %22, i64 0
  store ptr %23, ptr %17, align 8, !tbaa !140
  call void @llvm.lifetime.start.p0(i64 4, ptr %18) #6
  call void @llvm.lifetime.start.p0(i64 4, ptr %19) #6
  %24 = load ptr, ptr %17, align 8, !tbaa !140
  %25 = getelementptr inbounds nuw %struct.H264SliceContext, ptr %24, i32 0, i32 14
  %26 = getelementptr inbounds nuw %struct.H264PredWeightTable, ptr %25, i32 0, i32 4
  %27 = load i32, ptr %10, align 4, !tbaa !13
  %28 = sext i32 %27 to i64
  %29 = getelementptr inbounds [2 x i32], ptr %26, i64 0, i64 %28
  %30 = load i32, ptr %29, align 4, !tbaa !13
  %31 = trunc i32 %30 to i8
  %32 = load ptr, ptr %11, align 8, !tbaa !11
  store i8 %31, ptr %32, align 1, !tbaa !137
  %33 = load ptr, ptr %17, align 8, !tbaa !140
  %34 = getelementptr inbounds nuw %struct.H264SliceContext, ptr %33, i32 0, i32 14
  %35 = getelementptr inbounds nuw %struct.H264PredWeightTable, ptr %34, i32 0, i32 5
  %36 = load i32, ptr %10, align 4, !tbaa !13
  %37 = sext i32 %36 to i64
  %38 = getelementptr inbounds [2 x i32], ptr %35, i64 0, i64 %37
  %39 = load i32, ptr %38, align 4, !tbaa !13
  %40 = trunc i32 %39 to i8
  %41 = load ptr, ptr %14, align 8, !tbaa !11
  store i8 %40, ptr %41, align 1, !tbaa !137
  store i32 0, ptr %18, align 4, !tbaa !13
  br label %42

42:                                               ; preds = %192, %8
  %43 = load i32, ptr %18, align 4, !tbaa !13
  %44 = load ptr, ptr %17, align 8, !tbaa !140
  %45 = getelementptr inbounds nuw %struct.H264SliceContext, ptr %44, i32 0, i32 63
  %46 = load i32, ptr %10, align 4, !tbaa !13
  %47 = sext i32 %46 to i64
  %48 = getelementptr inbounds [2 x i32], ptr %45, i64 0, i64 %47
  %49 = load i32, ptr %48, align 4, !tbaa !13
  %50 = icmp ult i32 %43, %49
  br i1 %50, label %51, label %195

51:                                               ; preds = %42
  %52 = load ptr, ptr %17, align 8, !tbaa !140
  %53 = getelementptr inbounds nuw %struct.H264SliceContext, ptr %52, i32 0, i32 14
  %54 = getelementptr inbounds nuw %struct.H264PredWeightTable, ptr %53, i32 0, i32 4
  %55 = load i32, ptr %10, align 4, !tbaa !13
  %56 = sext i32 %55 to i64
  %57 = getelementptr inbounds [2 x i32], ptr %54, i64 0, i64 %56
  %58 = load i32, ptr %57, align 4, !tbaa !13
  %59 = icmp ne i32 %58, 0
  br i1 %59, label %60, label %93

60:                                               ; preds = %51
  %61 = load ptr, ptr %17, align 8, !tbaa !140
  %62 = getelementptr inbounds nuw %struct.H264SliceContext, ptr %61, i32 0, i32 14
  %63 = getelementptr inbounds nuw %struct.H264PredWeightTable, ptr %62, i32 0, i32 6
  %64 = load i32, ptr %18, align 4, !tbaa !13
  %65 = zext i32 %64 to i64
  %66 = getelementptr inbounds nuw [48 x [2 x [2 x i32]]], ptr %63, i64 0, i64 %65
  %67 = load i32, ptr %10, align 4, !tbaa !13
  %68 = sext i32 %67 to i64
  %69 = getelementptr inbounds [2 x [2 x i32]], ptr %66, i64 0, i64 %68
  %70 = getelementptr inbounds [2 x i32], ptr %69, i64 0, i64 0
  %71 = load i32, ptr %70, align 8, !tbaa !13
  %72 = trunc i32 %71 to i16
  %73 = load ptr, ptr %12, align 8, !tbaa !214
  %74 = load i32, ptr %18, align 4, !tbaa !13
  %75 = zext i32 %74 to i64
  %76 = getelementptr inbounds nuw i16, ptr %73, i64 %75
  store i16 %72, ptr %76, align 2, !tbaa !138
  %77 = load ptr, ptr %17, align 8, !tbaa !140
  %78 = getelementptr inbounds nuw %struct.H264SliceContext, ptr %77, i32 0, i32 14
  %79 = getelementptr inbounds nuw %struct.H264PredWeightTable, ptr %78, i32 0, i32 6
  %80 = load i32, ptr %18, align 4, !tbaa !13
  %81 = zext i32 %80 to i64
  %82 = getelementptr inbounds nuw [48 x [2 x [2 x i32]]], ptr %79, i64 0, i64 %81
  %83 = load i32, ptr %10, align 4, !tbaa !13
  %84 = sext i32 %83 to i64
  %85 = getelementptr inbounds [2 x [2 x i32]], ptr %82, i64 0, i64 %84
  %86 = getelementptr inbounds [2 x i32], ptr %85, i64 0, i64 1
  %87 = load i32, ptr %86, align 4, !tbaa !13
  %88 = trunc i32 %87 to i16
  %89 = load ptr, ptr %13, align 8, !tbaa !214
  %90 = load i32, ptr %18, align 4, !tbaa !13
  %91 = zext i32 %90 to i64
  %92 = getelementptr inbounds nuw i16, ptr %89, i64 %91
  store i16 %88, ptr %92, align 2, !tbaa !138
  br label %108

93:                                               ; preds = %51
  %94 = load ptr, ptr %17, align 8, !tbaa !140
  %95 = getelementptr inbounds nuw %struct.H264SliceContext, ptr %94, i32 0, i32 14
  %96 = getelementptr inbounds nuw %struct.H264PredWeightTable, ptr %95, i32 0, i32 2
  %97 = load i32, ptr %96, align 8, !tbaa !170
  %98 = shl i32 1, %97
  %99 = trunc i32 %98 to i16
  %100 = load ptr, ptr %12, align 8, !tbaa !214
  %101 = load i32, ptr %18, align 4, !tbaa !13
  %102 = zext i32 %101 to i64
  %103 = getelementptr inbounds nuw i16, ptr %100, i64 %102
  store i16 %99, ptr %103, align 2, !tbaa !138
  %104 = load ptr, ptr %13, align 8, !tbaa !214
  %105 = load i32, ptr %18, align 4, !tbaa !13
  %106 = zext i32 %105 to i64
  %107 = getelementptr inbounds nuw i16, ptr %104, i64 %106
  store i16 0, ptr %107, align 2, !tbaa !138
  br label %108

108:                                              ; preds = %93, %60
  store i32 0, ptr %19, align 4, !tbaa !13
  br label %109

109:                                              ; preds = %188, %108
  %110 = load i32, ptr %19, align 4, !tbaa !13
  %111 = icmp ult i32 %110, 2
  br i1 %111, label %112, label %191

112:                                              ; preds = %109
  %113 = load ptr, ptr %17, align 8, !tbaa !140
  %114 = getelementptr inbounds nuw %struct.H264SliceContext, ptr %113, i32 0, i32 14
  %115 = getelementptr inbounds nuw %struct.H264PredWeightTable, ptr %114, i32 0, i32 5
  %116 = load i32, ptr %10, align 4, !tbaa !13
  %117 = sext i32 %116 to i64
  %118 = getelementptr inbounds [2 x i32], ptr %115, i64 0, i64 %117
  %119 = load i32, ptr %118, align 4, !tbaa !13
  %120 = icmp ne i32 %119, 0
  br i1 %120, label %121, label %166

121:                                              ; preds = %112
  %122 = load ptr, ptr %17, align 8, !tbaa !140
  %123 = getelementptr inbounds nuw %struct.H264SliceContext, ptr %122, i32 0, i32 14
  %124 = getelementptr inbounds nuw %struct.H264PredWeightTable, ptr %123, i32 0, i32 7
  %125 = load i32, ptr %18, align 4, !tbaa !13
  %126 = zext i32 %125 to i64
  %127 = getelementptr inbounds nuw [48 x [2 x [2 x [2 x i32]]]], ptr %124, i64 0, i64 %126
  %128 = load i32, ptr %10, align 4, !tbaa !13
  %129 = sext i32 %128 to i64
  %130 = getelementptr inbounds [2 x [2 x [2 x i32]]], ptr %127, i64 0, i64 %129
  %131 = load i32, ptr %19, align 4, !tbaa !13
  %132 = zext i32 %131 to i64
  %133 = getelementptr inbounds nuw [2 x [2 x i32]], ptr %130, i64 0, i64 %132
  %134 = getelementptr inbounds [2 x i32], ptr %133, i64 0, i64 0
  %135 = load i32, ptr %134, align 8, !tbaa !13
  %136 = trunc i32 %135 to i16
  %137 = load ptr, ptr %15, align 8, !tbaa !214
  %138 = load i32, ptr %18, align 4, !tbaa !13
  %139 = zext i32 %138 to i64
  %140 = getelementptr inbounds nuw [2 x i16], ptr %137, i64 %139
  %141 = load i32, ptr %19, align 4, !tbaa !13
  %142 = zext i32 %141 to i64
  %143 = getelementptr inbounds nuw [2 x i16], ptr %140, i64 0, i64 %142
  store i16 %136, ptr %143, align 2, !tbaa !138
  %144 = load ptr, ptr %17, align 8, !tbaa !140
  %145 = getelementptr inbounds nuw %struct.H264SliceContext, ptr %144, i32 0, i32 14
  %146 = getelementptr inbounds nuw %struct.H264PredWeightTable, ptr %145, i32 0, i32 7
  %147 = load i32, ptr %18, align 4, !tbaa !13
  %148 = zext i32 %147 to i64
  %149 = getelementptr inbounds nuw [48 x [2 x [2 x [2 x i32]]]], ptr %146, i64 0, i64 %148
  %150 = load i32, ptr %10, align 4, !tbaa !13
  %151 = sext i32 %150 to i64
  %152 = getelementptr inbounds [2 x [2 x [2 x i32]]], ptr %149, i64 0, i64 %151
  %153 = load i32, ptr %19, align 4, !tbaa !13
  %154 = zext i32 %153 to i64
  %155 = getelementptr inbounds nuw [2 x [2 x i32]], ptr %152, i64 0, i64 %154
  %156 = getelementptr inbounds [2 x i32], ptr %155, i64 0, i64 1
  %157 = load i32, ptr %156, align 4, !tbaa !13
  %158 = trunc i32 %157 to i16
  %159 = load ptr, ptr %16, align 8, !tbaa !214
  %160 = load i32, ptr %18, align 4, !tbaa !13
  %161 = zext i32 %160 to i64
  %162 = getelementptr inbounds nuw [2 x i16], ptr %159, i64 %161
  %163 = load i32, ptr %19, align 4, !tbaa !13
  %164 = zext i32 %163 to i64
  %165 = getelementptr inbounds nuw [2 x i16], ptr %162, i64 0, i64 %164
  store i16 %158, ptr %165, align 2, !tbaa !138
  br label %187

166:                                              ; preds = %112
  %167 = load ptr, ptr %17, align 8, !tbaa !140
  %168 = getelementptr inbounds nuw %struct.H264SliceContext, ptr %167, i32 0, i32 14
  %169 = getelementptr inbounds nuw %struct.H264PredWeightTable, ptr %168, i32 0, i32 3
  %170 = load i32, ptr %169, align 4, !tbaa !172
  %171 = shl i32 1, %170
  %172 = trunc i32 %171 to i16
  %173 = load ptr, ptr %15, align 8, !tbaa !214
  %174 = load i32, ptr %18, align 4, !tbaa !13
  %175 = zext i32 %174 to i64
  %176 = getelementptr inbounds nuw [2 x i16], ptr %173, i64 %175
  %177 = load i32, ptr %19, align 4, !tbaa !13
  %178 = zext i32 %177 to i64
  %179 = getelementptr inbounds nuw [2 x i16], ptr %176, i64 0, i64 %178
  store i16 %172, ptr %179, align 2, !tbaa !138
  %180 = load ptr, ptr %16, align 8, !tbaa !214
  %181 = load i32, ptr %18, align 4, !tbaa !13
  %182 = zext i32 %181 to i64
  %183 = getelementptr inbounds nuw [2 x i16], ptr %180, i64 %182
  %184 = load i32, ptr %19, align 4, !tbaa !13
  %185 = zext i32 %184 to i64
  %186 = getelementptr inbounds nuw [2 x i16], ptr %183, i64 0, i64 %185
  store i16 0, ptr %186, align 2, !tbaa !138
  br label %187

187:                                              ; preds = %166, %121
  br label %188

188:                                              ; preds = %187
  %189 = load i32, ptr %19, align 4, !tbaa !13
  %190 = add i32 %189, 1
  store i32 %190, ptr %19, align 4, !tbaa !13
  br label %109, !llvm.loop !215

191:                                              ; preds = %109
  br label %192

192:                                              ; preds = %191
  %193 = load i32, ptr %18, align 4, !tbaa !13
  %194 = add i32 %193, 1
  store i32 %194, ptr %18, align 4, !tbaa !13
  br label %42, !llvm.loop !216

195:                                              ; preds = %42
  call void @llvm.lifetime.end.p0(i64 4, ptr %19) #6
  call void @llvm.lifetime.end.p0(i64 4, ptr %18) #6
  call void @llvm.lifetime.end.p0(i64 8, ptr %17) #6
  ret void
}