; Function Attrs: nofree norecurse nosync nounwind memory(argmem: readwrite) uwtable
define internal fastcc void @fill_vaapi_plain_pred_weight_table(ptr readonly captures(none) %.730728.val, i32 noundef range(i32 0, 2) %0, ptr noundef nonnull writeonly captures(none) initializes((0, 1)) %1, ptr noundef nonnull writeonly captures(none) %2, ptr noundef nonnull writeonly captures(none) %3, ptr noundef nonnull writeonly captures(none) initializes((0, 1)) %4, ptr noundef nonnull writeonly captures(none) %5, ptr noundef nonnull writeonly captures(none) %6) unnamed_addr #6 {
  %8 = getelementptr inbounds nuw i8, ptr %.730728.val, i64 112
  %9 = zext nneg i32 %0 to i64
  %10 = getelementptr inbounds nuw [2 x i32], ptr %8, i64 0, i64 %9
  %11 = load i32, ptr %10, align 4, !tbaa !104
  %12 = trunc i32 %11 to i8
  store i8 %12, ptr %1, align 1, !tbaa !117
  %13 = getelementptr inbounds nuw i8, ptr %.730728.val, i64 120
  %14 = getelementptr inbounds nuw [2 x i32], ptr %13, i64 0, i64 %9
  %15 = load i32, ptr %14, align 4, !tbaa !104
  %16 = trunc i32 %15 to i8
  store i8 %16, ptr %4, align 1, !tbaa !117
  %17 = getelementptr inbounds nuw i8, ptr %.730728.val, i64 22648
  %18 = getelementptr inbounds nuw [2 x i32], ptr %17, i64 0, i64 %9
  %19 = load i32, ptr %18, align 4, !tbaa !104
  %.not6 = icmp eq i32 %19, 0
  br i1 %.not6, label %._crit_edge, label %.lr.ph

.lr.ph:                                           ; preds = %7
  %20 = load i32, ptr %10, align 4, !tbaa !104
  %.not = icmp eq i32 %20, 0
  %21 = getelementptr inbounds nuw i8, ptr %.730728.val, i64 128
  %22 = getelementptr inbounds nuw i8, ptr %.730728.val, i64 104
  %23 = load i32, ptr %14, align 4, !tbaa !104
  %.not53 = icmp eq i32 %23, 0
  %24 = getelementptr inbounds nuw i8, ptr %.730728.val, i64 896
  br i1 %.not53, label %.lr.ph.split.us, label %.lr.ph.split

.lr.ph.split.us:                                  ; preds = %.lr.ph
  %25 = getelementptr inbounds nuw i8, ptr %.730728.val, i64 108
  %26 = load i32, ptr %25, align 4, !tbaa !157
  %27 = shl nuw i32 1, %26
  %28 = trunc i32 %27 to i16
  br i1 %.not, label %.lr.ph.split.us.split.us, label %.split.us.us.preheader

.split.us.us.preheader:                           ; preds = %.lr.ph.split.us
  %wide.trip.count28 = zext i32 %19 to i64
  br label %.split.us.us

.lr.ph.split.us.split.us:                         ; preds = %.lr.ph.split.us
  %29 = load i32, ptr %22, align 8, !tbaa !156
  %30 = shl nuw i32 1, %29
  %31 = trunc i32 %30 to i16
  %wide.trip.count36 = zext i32 %19 to i64
  br label %.split.us.us.us

.split.us.us.us:                                  ; preds = %.split.us.us.us, %.lr.ph.split.us.split.us
  %indvars.iv33 = phi i64 [ %indvars.iv.next34, %.split.us.us.us ], [ 0, %.lr.ph.split.us.split.us ]
  %32 = getelementptr inbounds nuw i16, ptr %2, i64 %indvars.iv33
  store i16 %31, ptr %32, align 2, !tbaa !116
  %33 = getelementptr inbounds nuw i16, ptr %3, i64 %indvars.iv33
  store i16 0, ptr %33, align 2, !tbaa !116
  %34 = getelementptr inbounds nuw [2 x i16], ptr %5, i64 %indvars.iv33, i64 0
  store i16 %28, ptr %34, align 2, !tbaa !116
  %35 = getelementptr inbounds nuw [2 x i16], ptr %6, i64 %indvars.iv33, i64 0
  store i16 0, ptr %35, align 2, !tbaa !116
  %36 = getelementptr inbounds nuw [2 x i16], ptr %5, i64 %indvars.iv33, i64 1
  store i16 %28, ptr %36, align 2, !tbaa !116
  %37 = getelementptr inbounds nuw [2 x i16], ptr %6, i64 %indvars.iv33, i64 1
  store i16 0, ptr %37, align 2, !tbaa !116
  %indvars.iv.next34 = add nuw nsw i64 %indvars.iv33, 1
  %exitcond37.not = icmp eq i64 %indvars.iv.next34, %wide.trip.count36
  br i1 %exitcond37.not, label %._crit_edge, label %.split.us.us.us, !llvm.loop !166

.split.us.us:                                     ; preds = %.split.us.us.preheader, %.split.us.us
  %indvars.iv25 = phi i64 [ 0, %.split.us.us.preheader ], [ %indvars.iv.next26, %.split.us.us ]
  %38 = getelementptr inbounds nuw [48 x [2 x [2 x i32]]], ptr %21, i64 0, i64 %indvars.iv25, i64 %9
  %39 = load i32, ptr %38, align 8, !tbaa !104
  %40 = trunc i32 %39 to i16
  %41 = getelementptr inbounds nuw i16, ptr %2, i64 %indvars.iv25
  store i16 %40, ptr %41, align 2, !tbaa !116
  %42 = getelementptr inbounds nuw i8, ptr %38, i64 4
  %43 = load i32, ptr %42, align 4, !tbaa !104
  %44 = trunc i32 %43 to i16
  %45 = getelementptr inbounds nuw i16, ptr %3, i64 %indvars.iv25
  store i16 %44, ptr %45, align 2, !tbaa !116
  %46 = getelementptr inbounds nuw [2 x i16], ptr %5, i64 %indvars.iv25, i64 0
  store i16 %28, ptr %46, align 2, !tbaa !116
  %47 = getelementptr inbounds nuw [2 x i16], ptr %6, i64 %indvars.iv25, i64 0
  store i16 0, ptr %47, align 2, !tbaa !116
  %48 = getelementptr inbounds nuw [2 x i16], ptr %5, i64 %indvars.iv25, i64 1
  store i16 %28, ptr %48, align 2, !tbaa !116
  %49 = getelementptr inbounds nuw [2 x i16], ptr %6, i64 %indvars.iv25, i64 1
  store i16 0, ptr %49, align 2, !tbaa !116
  %indvars.iv.next26 = add nuw nsw i64 %indvars.iv25, 1
  %exitcond29.not = icmp eq i64 %indvars.iv.next26, %wide.trip.count28
  br i1 %exitcond29.not, label %._crit_edge, label %.split.us.us, !llvm.loop !166

.lr.ph.split:                                     ; preds = %.lr.ph
  br i1 %.not, label %.lr.ph.split.split.us, label %.split.preheader

.split.preheader:                                 ; preds = %.lr.ph.split
  %wide.trip.count = zext i32 %19 to i64
  %.idx44 = shl nuw nsw i64 %9, 4
  %invariant.gep = getelementptr inbounds i8, ptr %24, i64 %.idx44
  br label %.split

.lr.ph.split.split.us:                            ; preds = %.lr.ph.split
  %50 = load i32, ptr %22, align 8, !tbaa !156
  %51 = shl nuw i32 1, %50
  %52 = trunc i32 %51 to i16
  %wide.trip.count20 = zext i32 %19 to i64
  %.idx47 = shl nuw nsw i64 %9, 4
  %invariant.gep52 = getelementptr inbounds i8, ptr %24, i64 %.idx47
  br label %.split.us

.split.us:                                        ; preds = %.split.us, %.lr.ph.split.split.us
  %indvars.iv17 = phi i64 [ %indvars.iv.next18, %.split.us ], [ 0, %.lr.ph.split.split.us ]
  %53 = getelementptr inbounds nuw i16, ptr %2, i64 %indvars.iv17
  store i16 %52, ptr %53, align 2, !tbaa !116
  %54 = getelementptr inbounds nuw i16, ptr %3, i64 %indvars.iv17
  store i16 0, ptr %54, align 2, !tbaa !116
  %55 = getelementptr inbounds nuw [48 x [2 x [2 x [2 x i32]]]], ptr %24, i64 0, i64 %indvars.iv17, i64 %9, i64 0
  %56 = load i32, ptr %55, align 8, !tbaa !104
  %57 = trunc i32 %56 to i16
  %58 = getelementptr inbounds nuw [2 x i16], ptr %5, i64 %indvars.iv17, i64 0
  store i16 %57, ptr %58, align 2, !tbaa !116
  %59 = getelementptr inbounds nuw i8, ptr %55, i64 4
  %60 = load i32, ptr %59, align 4, !tbaa !104
  %61 = trunc i32 %60 to i16
  %62 = getelementptr inbounds nuw [2 x i16], ptr %6, i64 %indvars.iv17, i64 0
  store i16 %61, ptr %62, align 2, !tbaa !116
  %.idx46 = shl nuw nsw i64 %indvars.iv17, 5
  %gep53 = getelementptr inbounds i8, ptr %invariant.gep52, i64 %.idx46
  %63 = getelementptr inbounds nuw i8, ptr %gep53, i64 8
  %64 = load i32, ptr %63, align 8, !tbaa !104
  %65 = trunc i32 %64 to i16
  %66 = getelementptr inbounds nuw [2 x i16], ptr %5, i64 %indvars.iv17, i64 1
  store i16 %65, ptr %66, align 2, !tbaa !116
  %67 = getelementptr inbounds nuw i8, ptr %gep53, i64 12
  %68 = load i32, ptr %67, align 4, !tbaa !104
  %69 = trunc i32 %68 to i16
  %70 = getelementptr inbounds nuw [2 x i16], ptr %6, i64 %indvars.iv17, i64 1
  store i16 %69, ptr %70, align 2, !tbaa !116
  %indvars.iv.next18 = add nuw nsw i64 %indvars.iv17, 1
  %exitcond21.not = icmp eq i64 %indvars.iv.next18, %wide.trip.count20
  br i1 %exitcond21.not, label %._crit_edge, label %.split.us, !llvm.loop !166

.split:                                           ; preds = %.split.preheader, %.split
  %indvars.iv11 = phi i64 [ 0, %.split.preheader ], [ %indvars.iv.next12, %.split ]
  %71 = getelementptr inbounds nuw [48 x [2 x [2 x i32]]], ptr %21, i64 0, i64 %indvars.iv11, i64 %9
  %72 = load i32, ptr %71, align 8, !tbaa !104
  %73 = trunc i32 %72 to i16
  %74 = getelementptr inbounds nuw i16, ptr %2, i64 %indvars.iv11
  store i16 %73, ptr %74, align 2, !tbaa !116
  %75 = getelementptr inbounds nuw i8, ptr %71, i64 4
  %76 = load i32, ptr %75, align 4, !tbaa !104
  %77 = trunc i32 %76 to i16
  %78 = getelementptr inbounds nuw i16, ptr %3, i64 %indvars.iv11
  store i16 %77, ptr %78, align 2, !tbaa !116
  %79 = getelementptr inbounds nuw [48 x [2 x [2 x [2 x i32]]]], ptr %24, i64 0, i64 %indvars.iv11, i64 %9, i64 0
  %80 = load i32, ptr %79, align 8, !tbaa !104
  %81 = trunc i32 %80 to i16
  %82 = getelementptr inbounds nuw [2 x i16], ptr %5, i64 %indvars.iv11, i64 0
  store i16 %81, ptr %82, align 2, !tbaa !116
  %83 = getelementptr inbounds nuw i8, ptr %79, i64 4
  %84 = load i32, ptr %83, align 4, !tbaa !104
  %85 = trunc i32 %84 to i16
  %86 = getelementptr inbounds nuw [2 x i16], ptr %6, i64 %indvars.iv11, i64 0
  store i16 %85, ptr %86, align 2, !tbaa !116
  %.idx = shl nuw nsw i64 %indvars.iv11, 5
  %gep = getelementptr inbounds i8, ptr %invariant.gep, i64 %.idx
  %87 = getelementptr inbounds nuw i8, ptr %gep, i64 8
  %88 = load i32, ptr %87, align 8, !tbaa !104
  %89 = trunc i32 %88 to i16
  %90 = getelementptr inbounds nuw [2 x i16], ptr %5, i64 %indvars.iv11, i64 1
  store i16 %89, ptr %90, align 2, !tbaa !116
  %91 = getelementptr inbounds nuw i8, ptr %gep, i64 12
  %92 = load i32, ptr %91, align 4, !tbaa !104
  %93 = trunc i32 %92 to i16
  %94 = getelementptr inbounds nuw [2 x i16], ptr %6, i64 %indvars.iv11, i64 1
  store i16 %93, ptr %94, align 2, !tbaa !116
  %indvars.iv.next12 = add nuw nsw i64 %indvars.iv11, 1
  %exitcond.not = icmp eq i64 %indvars.iv.next12, %wide.trip.count
  br i1 %exitcond.not, label %._crit_edge, label %.split, !llvm.loop !166

._crit_edge:                                      ; preds = %.split, %.split.us, %.split.us.us, %.split.us.us.us, %7
  ret void
}